Certificate:
    Data:
        Version: 3 (0x2)
        Serial Number: 2 (0x2)
    Signature Algorithm: sha256WithRSAEncryption
        Issuer: C=CN, ST=BJ, O=Uplusware, OU=erisemail, CN=localhost
        Validity
            Not Before: Aug 23 07:29:06 2017 GMT
            Not After : Aug 21 07:29:06 2027 GMT
        Subject: C=CN, ST=BJ, O=Uplusware, OU=erisemail, CN=127.0.0.1
        Subject Public Key Info:
            Public Key Algorithm: rsaEncryption
                Public-Key: (1024 bit)
                Modulus:
                    00:b1:c1:c8:c3:e8:94:f7:8a:e9:58:28:08:bd:8d:
                    f9:28:6e:f5:ae:fe:01:20:0c:20:8e:46:c6:a5:c2:
                    83:d0:7a:9d:b5:72:7d:89:79:7c:34:db:1f:bf:fd:
                    83:11:76:38:8d:7c:93:10:d1:4b:30:ff:88:20:85:
                    53:98:ab:43:83:ab:65:cb:d1:d4:5e:47:9e:1b:ec:
                    98:47:69:92:0e:94:d8:0c:9d:3c:53:7a:fe:54:8a:
                    57:ff:5b:89:36:cd:e6:92:26:2e:48:8e:a1:23:46:
                    d7:88:8b:e8:c3:fc:d5:22:ae:7c:25:dc:31:5c:e5:
                    43:23:83:a4:4f:84:04:ed:8b
                Exponent: 65537 (0x10001)
        X509v3 extensions:
            X509v3 Basic Constraints: 
                CA:FALSE
            Netscape Comment: 
                OpenSSL Generated Certificate
            X509v3 Subject Key Identifier: 
                85:1C:39:A5:E8:19:48:AD:C2:09:2C:40:9F:DD:FD:59:4C:30:DD:B1
            X509v3 Authority Key Identifier: 
                keyid:C2:C6:74:60:7D:DA:42:CF:17:1A:81:A9:2D:AB:61:D0:BD:76:B7:B3

    Signature Algorithm: sha256WithRSAEncryption
         7d:57:a6:db:cb:fd:3e:2d:d7:74:02:8e:58:94:a1:43:c1:e2:
         13:f0:2d:2c:e6:26:ae:2d:71:33:fe:b1:a3:cd:22:a3:2a:68:
         94:5c:49:a8:18:af:75:85:81:13:72:af:88:bc:8c:c2:1c:82:
         41:b6:5d:9d:45:a6:32:f9:9d:13:27:6e:91:9f:de:e9:a1:14:
         e4:cb:4e:cd:5c:e4:c3:77:c3:f8:88:88:d6:fc:23:b4:8c:0b:
         9c:ba:41:20:63:fb:fd:08:93:05:28:2a:fe:d7:3e:b5:6e:2a:
         c9:ba:1d:6e:27:ec:a4:2e:26:9b:0d:74:47:b4:44:4c:46:10:
         87:26:c6:5b:1a:d1:0a:e7:b3:3b:19:88:3a:a6:47:3a:1e:c5:
         8f:ea:a4:f6:b6:c2:c1:da:e7:c9:06:63:9e:ee:14:b1:29:27:
         fb:5d:c7:f3:db:10:31:52:2f:31:ca:b4:55:bb:30:5c:bd:8e:
         93:19:2c:94:f2:25:02:33:11:98:45:3c:ac:6f:a0:6b:84:53:
         87:50:6b:b9:97:9b:27:e8:d1:e5:be:97:b3:ab:b4:1d:0d:9b:
         90:59:8f:a9:1c:2d:bc:a8:7d:bd:c4:60:c7:f9:fd:fe:b8:73:
         70:d0:68:bb:4d:18:95:08:db:68:fe:50:0d:cb:c2:6a:3f:19:
         85:3d:32:50
-----BEGIN CERTIFICATE-----
MIIDHjCCAgagAwIBAgIBAjANBgkqhkiG9w0BAQsFADBWMQswCQYDVQQGEwJDTjEL
MAkGA1UECAwCQkoxEjAQBgNVBAoMCVVwbHVzd2FyZTESMBAGA1UECwwJZXJpc2Vt
YWlsMRIwEAYDVQQDDAlsb2NhbGhvc3QwHhcNMTcwODIzMDcyOTA2WhcNMjcwODIx
MDcyOTA2WjBWMQswCQYDVQQGEwJDTjELMAkGA1UECAwCQkoxEjAQBgNVBAoMCVVw
bHVzd2FyZTESMBAGA1UECwwJZXJpc2VtYWlsMRIwEAYDVQQDDAkxMjcuMC4wLjEw
gZ8wDQYJKoZIhvcNAQEBBQADgY0AMIGJAoGBALHByMPolPeK6VgoCL2N+Shu9a7+
ASAMII5GxqXCg9B6nbVyfYl5fDTbH7/9gxF2OI18kxDRSzD/iCCFU5irQ4OrZcvR
1F5HnhvsmEdpkg6U2AydPFN6/lSKV/9biTbN5pImLkiOoSNG14iL6MP81SKufCXc
MVzlQyODpE+EBO2LAgMBAAGjezB5MAkGA1UdEwQCMAAwLAYJYIZIAYb4QgENBB8W
HU9wZW5TU0wgR2VuZXJhdGVkIENlcnRpZmljYXRlMB0GA1UdDgQWBBSFHDml6BlI
rcIJLECf3f1ZTDDdsTAfBgNVHSMEGDAWgBTCxnRgfdpCzxcagaktq2HQvXa3szAN
BgkqhkiG9w0BAQsFAAOCAQEAfVem28v9Pi3XdAKOWJShQ8HiE/AtLOYmri1xM/6x
o80ioypolFxJqBivdYWBE3KviLyMwhyCQbZdnUWmMvmdEydukZ/e6aEU5MtOzVzk
w3fD+IiI1vwjtIwLnLpBIGP7/QiTBSgq/tc+tW4qybodbifspC4mmw10R7RETEYQ
hybGWxrRCuezOxmIOqZHOh7Fj+qk9rbCwdrnyQZjnu4UsSkn+13H89sQMVIvMcq0
VbswXL2OkxkslPIlAjMRmEU8rG+ga4RTh1BruZebJ+jR5b6Xs6u0HQ2bkFmPqRwt
vKh9vcRgx/n9/rhzcNBou00YlQjbaP5QDcvCaj8ZhT0yUA==
-----END CERTIFICATE-----
