Certificate:
    Data:
        Version: 3 (0x2)
        Serial Number: 1 (0x1)
    Signature Algorithm: sha256WithRSAEncryption
        Issuer: C=CN, ST=BJ, O=Uplusware, OU=erisemail, CN=localhost
        Validity
            Not Before: Aug 23 07:29:03 2017 GMT
            Not After : Aug 21 07:29:03 2027 GMT
        Subject: C=CN, ST=BJ, O=Uplusware, OU=erisemail, CN=localhost
        Subject Public Key Info:
            Public Key Algorithm: rsaEncryption
                Public-Key: (1024 bit)
                Modulus:
                    00:9c:c0:6b:bd:f2:2a:01:e7:78:18:98:82:a2:63:
                    45:fc:cd:ab:fc:b5:03:95:57:ff:28:f8:9f:30:ed:
                    6d:b6:1b:de:78:5f:35:fd:fc:dd:fc:a9:6d:53:43:
                    3d:97:78:5b:84:69:f9:80:23:31:87:97:a3:06:19:
                    85:5b:fe:d7:b9:ef:56:f0:f4:20:09:2f:45:2c:77:
                    25:66:ac:a9:db:71:db:22:0a:81:84:90:9b:b3:c0:
                    34:9b:b9:0a:86:d4:5e:cd:a4:f6:bb:56:44:92:b6:
                    69:99:8e:af:3c:b0:b3:ee:d1:a9:6e:36:14:52:48:
                    3a:07:eb:80:89:b9:92:a4:a5
                Exponent: 65537 (0x10001)
        X509v3 extensions:
            X509v3 Basic Constraints: 
                CA:FALSE
            Netscape Comment: 
                OpenSSL Generated Certificate
            X509v3 Subject Key Identifier: 
                9D:CD:50:5C:03:94:59:35:AD:A3:36:70:8A:DF:0C:FB:9B:9C:FF:36
            X509v3 Authority Key Identifier: 
                keyid:C2:C6:74:60:7D:DA:42:CF:17:1A:81:A9:2D:AB:61:D0:BD:76:B7:B3

    Signature Algorithm: sha256WithRSAEncryption
         64:8f:50:35:9e:8a:3f:d6:c6:9d:c4:c0:c8:63:fb:2f:b9:15:
         1b:a8:81:d7:0f:90:43:66:30:b5:11:e5:31:d9:43:23:c2:90:
         91:08:22:bb:33:8f:bf:96:d8:ab:42:61:59:d1:fd:ab:08:b4:
         d2:79:73:d2:d4:3e:e9:2f:a2:58:cd:ff:8f:88:cc:6f:ae:7b:
         28:2b:62:64:9f:2c:69:c1:25:cf:75:9c:aa:25:de:69:ed:dd:
         bf:9b:86:61:18:4b:5f:59:85:95:03:cb:52:8c:0b:d2:14:1a:
         f1:0e:e6:d7:cf:b1:f4:ad:c1:50:9d:ed:c0:25:cb:25:05:ab:
         b9:ab:0a:c3:4e:fa:67:88:3d:e4:c9:7d:37:e1:df:b4:fd:6d:
         5b:0e:9f:b8:0b:29:45:8a:03:b7:f0:93:aa:1c:41:ea:ea:e0:
         2d:82:12:43:53:26:f9:86:5f:82:19:25:0a:b6:6c:12:39:7b:
         6d:b4:d2:83:fb:64:39:f3:ea:ca:8c:6d:75:01:9a:4e:9e:cf:
         b4:e6:31:97:ae:79:41:79:ec:4b:b0:93:28:c1:90:0c:1e:8a:
         29:d9:6b:68:02:24:70:9b:3b:54:2a:83:4f:f5:15:c5:3c:75:
         dc:d3:52:14:91:18:8d:e4:f7:1d:10:ca:28:e3:33:ad:a0:c5:
         00:3e:42:ca
-----BEGIN CERTIFICATE-----
MIIDHjCCAgagAwIBAgIBATANBgkqhkiG9w0BAQsFADBWMQswCQYDVQQGEwJDTjEL
MAkGA1UECAwCQkoxEjAQBgNVBAoMCVVwbHVzd2FyZTESMBAGA1UECwwJZXJpc2Vt
YWlsMRIwEAYDVQQDDAlsb2NhbGhvc3QwHhcNMTcwODIzMDcyOTAzWhcNMjcwODIx
MDcyOTAzWjBWMQswCQYDVQQGEwJDTjELMAkGA1UECAwCQkoxEjAQBgNVBAoMCVVw
bHVzd2FyZTESMBAGA1UECwwJZXJpc2VtYWlsMRIwEAYDVQQDDAlsb2NhbGhvc3Qw
gZ8wDQYJKoZIhvcNAQEBBQADgY0AMIGJAoGBAJzAa73yKgHneBiYgqJjRfzNq/y1
A5VX/yj4nzDtbbYb3nhfNf383fypbVNDPZd4W4Rp+YAjMYeXowYZhVv+17nvVvD0
IAkvRSx3JWasqdtx2yIKgYSQm7PANJu5CobUXs2k9rtWRJK2aZmOrzyws+7RqW42
FFJIOgfrgIm5kqSlAgMBAAGjezB5MAkGA1UdEwQCMAAwLAYJYIZIAYb4QgENBB8W
HU9wZW5TU0wgR2VuZXJhdGVkIENlcnRpZmljYXRlMB0GA1UdDgQWBBSdzVBcA5RZ
Na2jNnCK3wz7m5z/NjAfBgNVHSMEGDAWgBTCxnRgfdpCzxcagaktq2HQvXa3szAN
BgkqhkiG9w0BAQsFAAOCAQEAZI9QNZ6KP9bGncTAyGP7L7kVG6iB1w+QQ2YwtRHl
MdlDI8KQkQgiuzOPv5bYq0JhWdH9qwi00nlz0tQ+6S+iWM3/j4jMb657KCtiZJ8s
acElz3WcqiXeae3dv5uGYRhLX1mFlQPLUowL0hQa8Q7m18+x9K3BUJ3twCXLJQWr
uasKw076Z4g95Ml9N+HftP1tWw6fuAspRYoDt/CTqhxB6urgLYISQ1Mm+YZfghkl
CrZsEjl7bbTSg/tkOfPqyoxtdQGaTp7PtOYxl655QXnsS7CTKMGQDB6KKdlraAIk
cJs7VCqDT/UVxTx13NNSFJEYjeT3HRDKKOMzraDFAD5Cyg==
-----END CERTIFICATE-----
