Certificate:
    Data:
        Version: 1 (0x0)
        Serial Number: 1 (0x1)
    Signature Algorithm: md5WithRSAEncryption
        Issuer: C=CN, ST=BJ, L=BJ, O=openheap, OU=openheap, CN=openheap/emailAddress=uplusware@gmail.com
        Validity
            Not Before: Aug 21 08:01:30 2015 GMT
            Not After : Aug 18 08:01:30 2025 GMT
        Subject: C=CN, ST=BJ, L=BJ, O=openheap, OU=openheap, CN=openheap/emailAddress=uplusware@gmail.com
        Subject Public Key Info:
            Public Key Algorithm: rsaEncryption
                Public-Key: (1024 bit)
                Modulus:
                    00:cb:f8:39:0e:b6:a0:63:1c:f8:9e:8d:a8:b3:77:
                    d6:0e:ae:ca:35:db:05:ae:45:f2:4c:bb:7c:3e:c4:
                    7e:59:39:e5:0f:dd:a1:e6:86:5b:81:e1:47:3b:41:
                    42:9d:ce:ce:fe:94:73:65:3a:f4:18:e1:0e:9d:d6:
                    a8:21:f7:fe:47:3f:a1:f0:45:dd:f8:92:cf:1d:2b:
                    fd:93:ad:94:ab:0c:02:5d:fb:a0:0b:1e:7b:89:6f:
                    12:86:9d:f3:07:1d:8f:dc:d5:29:a0:5d:94:40:e3:
                    27:df:85:fa:99:7d:79:b6:c6:38:85:bb:b7:14:57:
                    b4:9c:30:d2:53:06:46:69:dd
                Exponent: 65537 (0x10001)
    Signature Algorithm: md5WithRSAEncryption
         18:4c:18:96:41:48:78:f4:23:f9:d5:64:c0:ac:8a:6e:ab:ce:
         45:44:c7:41:bc:21:9d:4f:c7:d6:f7:a1:ea:5f:ff:5d:b0:4d:
         72:c8:36:43:b9:5f:7e:94:f8:0c:0d:c9:fe:ed:cd:17:90:34:
         cf:c9:98:d7:b8:93:88:2b:9d:db:f1:e5:da:fd:aa:c7:6d:da:
         c4:c9:a3:e2:3b:8a:19:ff:69:68:b9:5a:74:63:04:4a:3c:62:
         09:1f:b7:e4:27:74:fe:43:1e:00:84:95:a1:8f:99:b3:62:fe:
         50:dd:71:6c:c3:e6:00:8c:e3:37:c3:95:00:73:61:de:05:78:
         87:72
-----BEGIN CERTIFICATE-----
MIICeTCCAeICAQEwDQYJKoZIhvcNAQEEBQAwgYQxCzAJBgNVBAYTAkNOMQswCQYD
VQQIDAJCSjELMAkGA1UEBwwCQkoxETAPBgNVBAoMCG9wZW5oZWFwMREwDwYDVQQL
DAhvcGVuaGVhcDERMA8GA1UEAwwIb3BlbmhlYXAxIjAgBgkqhkiG9w0BCQEWE3Vw
bHVzd2FyZUBnbWFpbC5jb20wHhcNMTUwODIxMDgwMTMwWhcNMjUwODE4MDgwMTMw
WjCBhDELMAkGA1UEBhMCQ04xCzAJBgNVBAgMAkJKMQswCQYDVQQHDAJCSjERMA8G
A1UECgwIb3BlbmhlYXAxETAPBgNVBAsMCG9wZW5oZWFwMREwDwYDVQQDDAhvcGVu
aGVhcDEiMCAGCSqGSIb3DQEJARYTdXBsdXN3YXJlQGdtYWlsLmNvbTCBnzANBgkq
hkiG9w0BAQEFAAOBjQAwgYkCgYEAy/g5DragYxz4no2os3fWDq7KNdsFrkXyTLt8
PsR+WTnlD92h5oZbgeFHO0FCnc7O/pRzZTr0GOEOndaoIff+Rz+h8EXd+JLPHSv9
k62UqwwCXfugCx57iW8Shp3zBx2P3NUpoF2UQOMn34X6mX15tsY4hbu3FFe0nDDS
UwZGad0CAwEAATANBgkqhkiG9w0BAQQFAAOBgQAYTBiWQUh49CP51WTArIpuq85F
RMdBvCGdT8fW96HqX/9dsE1yyDZDuV9+lPgMDcn+7c0XkDTPyZjXuJOIK53b8eXa
/arHbdrEyaPiO4oZ/2louVp0YwRKPGIJH7fkJ3T+Qx4AhJWhj5mzYv5Q3XFsw+YA
jOM3w5UAc2HeBXiHcg==
-----END CERTIFICATE-----
